target datalayout = "e-m:e-p270:32:32-p271:32:32-p272:64:64-i64:64-i128:128-f80:128-n8:16:32:64-S128"
target triple = "x86_64-pc-linux-gnu"

%struct.MyTreeNode = type { ptr, ptr, i32, i32, i32 }

@.str.385 = private unnamed_addr constant [3 x i8] c"%d\00", align 1
@_ZZL20ShowDemoWindowTablesvE20tree_node_flags_base = internal global i32 16384, align 4
@.str.1821 = private unnamed_addr constant [3 x i8] c"--\00", align 1

; Function Attrs: mustprogress uwtable
define internal void @_ZZL20ShowDemoWindowTablesvEN10MyTreeNode11DisplayNodeEPKS_S1_(ptr noundef %0, ptr noundef %1) #0 align 2 {
  %3 = alloca ptr, align 8
  %4 = alloca ptr, align 8
  %5 = alloca i8, align 1
  %6 = alloca i32, align 4
  %7 = alloca i8, align 1
  %8 = alloca i32, align 4
  store ptr %0, ptr %3, align 8, !tbaa !535
  store ptr %1, ptr %4, align 8, !tbaa !535
  call void @_ZN5ImGui12TableNextRowEif(i32 noundef 0, float noundef 0.000000e+00)
  %9 = call noundef zeroext i1 @_ZN5ImGui15TableNextColumnEv()
  call void @llvm.lifetime.start.p0(i64 1, ptr %5) #2
  %10 = load ptr, ptr %3, align 8, !tbaa !535
  %11 = getelementptr inbounds nuw %struct.MyTreeNode, ptr %10, i32 0, i32 4
  %12 = load i32, ptr %11, align 8, !tbaa !537
  %13 = icmp sgt i32 %12, 0
  %14 = zext i1 %13 to i8
  store i8 %14, ptr %5, align 1, !tbaa !35
  call void @llvm.lifetime.start.p0(i64 4, ptr %6) #2
  %15 = load i32, ptr @_ZZL20ShowDemoWindowTablesvE20tree_node_flags_base, align 4, !tbaa !33
  store i32 %15, ptr %6, align 4, !tbaa !33
  %16 = load ptr, ptr %3, align 8, !tbaa !535
  %17 = load ptr, ptr %4, align 8, !tbaa !535
  %18 = getelementptr inbounds %struct.MyTreeNode, ptr %17, i64 0
  %19 = icmp ne ptr %16, %18
  br i1 %19, label %20, label %23

20:                                               ; preds = %2
  %21 = load i32, ptr %6, align 4, !tbaa !33
  %22 = and i32 %21, -32769
  store i32 %22, ptr %6, align 4, !tbaa !33
  br label %23

23:                                               ; preds = %20, %2
  %24 = load i8, ptr %5, align 1, !tbaa !35, !range !13, !noundef !14
  %25 = trunc i8 %24 to i1
  br i1 %25, label %26, label %68

26:                                               ; preds = %23
  call void @llvm.lifetime.start.p0(i64 1, ptr %7) #2
  %27 = load ptr, ptr %3, align 8, !tbaa !535
  %28 = getelementptr inbounds nuw %struct.MyTreeNode, ptr %27, i32 0, i32 0
  %29 = load ptr, ptr %28, align 8, !tbaa !539
  %30 = load i32, ptr %6, align 4, !tbaa !33
  %31 = call noundef zeroext i1 @_ZN5ImGui10TreeNodeExEPKci(ptr noundef %29, i32 noundef %30)
  %32 = zext i1 %31 to i8
  store i8 %32, ptr %7, align 1, !tbaa !35
  %33 = load i32, ptr %6, align 4, !tbaa !33
  %34 = and i32 %33, 32768
  %35 = icmp eq i32 %34, 0
  br i1 %35, label %36, label %42

36:                                               ; preds = %26
  %37 = call noundef zeroext i1 @_ZN5ImGui15TableNextColumnEv()
  call void (ptr, ...) @_ZN5ImGui12TextDisabledEPKcz(ptr noundef @.str.1821)
  %38 = call noundef zeroext i1 @_ZN5ImGui15TableNextColumnEv()
  %39 = load ptr, ptr %3, align 8, !tbaa !535
  %40 = getelementptr inbounds nuw %struct.MyTreeNode, ptr %39, i32 0, i32 1
  %41 = load ptr, ptr %40, align 8, !tbaa !540
  call void @_ZN5ImGui15TextUnformattedEPKcS1_(ptr noundef %41, ptr noundef null)
  br label %42

42:                                               ; preds = %36, %26
  %43 = load i8, ptr %7, align 1, !tbaa !35, !range !13, !noundef !14
  %44 = trunc i8 %43 to i1
  br i1 %44, label %45, label %67

45:                                               ; preds = %42
  call void @llvm.lifetime.start.p0(i64 4, ptr %8) #2
  store i32 0, ptr %8, align 4, !tbaa !33
  br label %46

46:                                               ; preds = %63, %45
  %47 = load i32, ptr %8, align 4, !tbaa !33
  %48 = load ptr, ptr %3, align 8, !tbaa !535
  %49 = getelementptr inbounds nuw %struct.MyTreeNode, ptr %48, i32 0, i32 4
  %50 = load i32, ptr %49, align 8, !tbaa !537
  %51 = icmp slt i32 %47, %50
  br i1 %51, label %53, label %52

52:                                               ; preds = %46
  call void @llvm.lifetime.end.p0(i64 4, ptr %8) #2
  br label %66

53:                                               ; preds = %46
  %54 = load ptr, ptr %4, align 8, !tbaa !535
  %55 = load ptr, ptr %3, align 8, !tbaa !535
  %56 = getelementptr inbounds nuw %struct.MyTreeNode, ptr %55, i32 0, i32 3
  %57 = load i32, ptr %56, align 4, !tbaa !541
  %58 = load i32, ptr %8, align 4, !tbaa !33
  %59 = add nsw i32 %57, %58
  %60 = sext i32 %59 to i64
  %61 = getelementptr inbounds %struct.MyTreeNode, ptr %54, i64 %60
  %62 = load ptr, ptr %4, align 8, !tbaa !535
  call void @_ZZL20ShowDemoWindowTablesvEN10MyTreeNode11DisplayNodeEPKS_S1_(ptr noundef %61, ptr noundef %62)
  br label %63

63:                                               ; preds = %53
  %64 = load i32, ptr %8, align 4, !tbaa !33
  %65 = add nsw i32 %64, 1
  store i32 %65, ptr %8, align 4, !tbaa !33
  br label %46, !llvm.loop !542

66:                                               ; preds = %52
  call void @_ZN5ImGui7TreePopEv()
  br label %67

67:                                               ; preds = %66, %42
  call void @llvm.lifetime.end.p0(i64 1, ptr %7) #2
  br label %85

68:                                               ; preds = %23
  %69 = load ptr, ptr %3, align 8, !tbaa !535
  %70 = getelementptr inbounds nuw %struct.MyTreeNode, ptr %69, i32 0, i32 0
  %71 = load ptr, ptr %70, align 8, !tbaa !539
  %72 = load i32, ptr %6, align 4, !tbaa !33
  %73 = or i32 %72, 256
  %74 = or i32 %73, 512
  %75 = or i32 %74, 8
  %76 = call noundef zeroext i1 @_ZN5ImGui10TreeNodeExEPKci(ptr noundef %71, i32 noundef %75)
  %77 = call noundef zeroext i1 @_ZN5ImGui15TableNextColumnEv()
  %78 = load ptr, ptr %3, align 8, !tbaa !535
  %79 = getelementptr inbounds nuw %struct.MyTreeNode, ptr %78, i32 0, i32 2
  %80 = load i32, ptr %79, align 8, !tbaa !543
  call void (ptr, ...) @_ZN5ImGui4TextEPKcz(ptr noundef @.str.385, i32 noundef %80)
  %81 = call noundef zeroext i1 @_ZN5ImGui15TableNextColumnEv()
  %82 = load ptr, ptr %3, align 8, !tbaa !535
  %83 = getelementptr inbounds nuw %struct.MyTreeNode, ptr %82, i32 0, i32 1
  %84 = load ptr, ptr %83, align 8, !tbaa !540
  call void @_ZN5ImGui15TextUnformattedEPKcS1_(ptr noundef %84, ptr noundef null)
  br label %85

85:                                               ; preds = %68, %67
  call void @llvm.lifetime.end.p0(i64 4, ptr %6) #2
  call void @llvm.lifetime.end.p0(i64 1, ptr %5) #2
  ret void
}