; Function Attrs: mustprogress uwtable
define internal fastcc void @_ZZL20ShowDemoWindowTablesvEN10MyTreeNode11DisplayNodeEPKS_S1_(ptr noundef readonly %0) unnamed_addr #4 align 2 {
  tail call void @_ZN5ImGui12TableNextRowEif(i32 noundef 0, float noundef 0.000000e+00)
  %2 = tail call noundef zeroext i1 @_ZN5ImGui15TableNextColumnEv()
  %3 = getelementptr inbounds nuw i8, ptr %0, i64 24
  %4 = load i32, ptr %3, align 8, !tbaa !500
  %5 = icmp sgt i32 %4, 0
  %6 = load i32, ptr @_ZZL20ShowDemoWindowTablesvE20tree_node_flags_base, align 4, !tbaa !54
  %.not = icmp eq ptr %0, @_ZZL20ShowDemoWindowTablesvE5nodes
  %7 = and i32 %6, -32769
  %spec.select = select i1 %.not, i32 %6, i32 %7
  %8 = load ptr, ptr %0, align 8, !tbaa !502
  br i1 %5, label %9, label %30

9:                                                ; preds = %1
  %10 = tail call noundef zeroext i1 @_ZN5ImGui10TreeNodeExEPKci(ptr noundef %8, i32 noundef %spec.select)
  %11 = and i32 %spec.select, 32768
  %12 = icmp eq i32 %11, 0
  br i1 %12, label %13, label %18

13:                                               ; preds = %9
  %14 = tail call noundef zeroext i1 @_ZN5ImGui15TableNextColumnEv()
  tail call void (ptr, ...) @_ZN5ImGui12TextDisabledEPKcz(ptr noundef nonnull @.str.1821)
  %15 = tail call noundef zeroext i1 @_ZN5ImGui15TableNextColumnEv()
  %16 = getelementptr inbounds nuw i8, ptr %0, i64 8
  %17 = load ptr, ptr %16, align 8, !tbaa !503
  tail call void @_ZN5ImGui15TextUnformattedEPKcS1_(ptr noundef %17, ptr noundef null)
  br label %18

18:                                               ; preds = %13, %9
  br i1 %10, label %.preheader, label %39

.preheader:                                       ; preds = %18
  %19 = load i32, ptr %3, align 8, !tbaa !500
  %20 = icmp sgt i32 %19, 0
  br i1 %20, label %.lr.ph, label %._crit_edge

.lr.ph:                                           ; preds = %.preheader
  %21 = getelementptr inbounds nuw i8, ptr %0, i64 20
  br label %22

._crit_edge:                                      ; preds = %22, %.preheader
  tail call void @_ZN5ImGui7TreePopEv()
  br label %39

22:                                               ; preds = %.lr.ph, %22
  %.01 = phi i32 [ 0, %.lr.ph ], [ %27, %22 ]
  %23 = load i32, ptr %21, align 4, !tbaa !504
  %24 = add nsw i32 %23, %.01
  %25 = sext i32 %24 to i64
  %26 = getelementptr inbounds %struct.MyTreeNode, ptr @_ZZL20ShowDemoWindowTablesvE5nodes, i64 %25
  tail call fastcc void @_ZZL20ShowDemoWindowTablesvEN10MyTreeNode11DisplayNodeEPKS_S1_(ptr noundef nonnull %26)
  %27 = add nuw nsw i32 %.01, 1
  %28 = load i32, ptr %3, align 8, !tbaa !500
  %29 = icmp slt i32 %27, %28
  br i1 %29, label %22, label %._crit_edge, !llvm.loop !505

30:                                               ; preds = %1
  %31 = or i32 %spec.select, 776
  %32 = tail call noundef zeroext i1 @_ZN5ImGui10TreeNodeExEPKci(ptr noundef %8, i32 noundef %31)
  %33 = tail call noundef zeroext i1 @_ZN5ImGui15TableNextColumnEv()
  %34 = getelementptr inbounds nuw i8, ptr %0, i64 16
  %35 = load i32, ptr %34, align 8, !tbaa !506
  tail call void (ptr, ...) @_ZN5ImGui4TextEPKcz(ptr noundef nonnull @.str.385, i32 noundef %35)
  %36 = tail call noundef zeroext i1 @_ZN5ImGui15TableNextColumnEv()
  %37 = getelementptr inbounds nuw i8, ptr %0, i64 8
  %38 = load ptr, ptr %37, align 8, !tbaa !503
  tail call void @_ZN5ImGui15TextUnformattedEPKcS1_(ptr noundef %38, ptr noundef null)
  br label %39

39:                                               ; preds = %18, %._crit_edge, %30
  ret void
}